target datalayout = "e-m:e-p270:32:32-p271:32:32-p272:64:64-i64:64-i128:128-f80:128-n8:16:32:64-S128"
target triple = "x86_64-pc-linux-gnu"

%class.Metadata = type { ptr }
%class.OopHandle = type { ptr }
%class.AccessFlags = type { i32 }
%class.ConstantPool = type <{ %class.Metadata, ptr, ptr, ptr, ptr, ptr, i16, i16, i16, i16, i16, [2 x i8], i32, %union.anon.2, [4 x i8] }>
%union.anon.2 = type { i32 }
%class.InstanceKlass = type { %class.Klass.base, ptr, ptr, ptr, ptr, ptr, ptr, ptr, ptr, ptr, ptr, i32, i32, i32, i32, i16, i16, i16, i16, i8, i8, i8, i8, %class.InstanceKlassFlags, ptr, ptr, ptr, ptr, ptr, i64, ptr, ptr, ptr, ptr, ptr, ptr, ptr, ptr, ptr, ptr, ptr, ptr, ptr }
%class.Klass.base = type <{ %class.Metadata, i32, i32, i32, i32, ptr, ptr, ptr, [8 x ptr], %class.OopHandle, ptr, ptr, ptr, ptr, ptr, i32, %class.AccessFlags, i64, i64, i8, i8, i16, i16, [2 x i8], i32 }>
%class.InstanceKlassFlags = type <{ i16, i8, i8 }>
%class.Array.3 = type <{ i32, [1 x i16], [2 x i8] }>

@.str.62 = private unnamed_addr constant [19 x i8] c"constant pool [%d]\00", align 1
@.str.63 = private unnamed_addr constant [15 x i8] c"/preresolution\00", align 1
@.str.64 = private unnamed_addr constant [14 x i8] c"/operands[%d]\00", align 1
@.str.65 = private unnamed_addr constant [6 x i8] c" for \00", align 1
@.str.66 = private unnamed_addr constant [9 x i8] c" (extra)\00", align 1
@.str.67 = private unnamed_addr constant [16 x i8] c" cache=0x%016lx\00", align 1

; Function Attrs: mustprogress nounwind uwtable
define linkonce_odr hidden noundef i64 @_Z3p2iPVKv(ptr noundef %0) #1 comdat {
  %2 = alloca ptr, align 8
  store ptr %0, ptr %2, align 8
  %3 = load ptr, ptr %2, align 8
  %4 = ptrtoint ptr %3 to i64
  ret i64 %4
}

; Function Attrs: mustprogress nounwind uwtable
define linkonce_odr hidden noundef ptr @_ZNK12ConstantPool5cacheEv(ptr noundef nonnull align 8 dereferenceable(68) %0) #1 comdat align 2 {
  %2 = alloca ptr, align 8
  store ptr %0, ptr %2, align 8
  %3 = load ptr, ptr %2, align 8
  %4 = getelementptr inbounds %class.ConstantPool, ptr %3, i32 0, i32 2
  %5 = load ptr, ptr %4, align 8
  ret ptr %5
}

; Function Attrs: mustprogress nounwind uwtable
define linkonce_odr hidden noundef ptr @_ZNK13InstanceKlass9constantsEv(ptr noundef nonnull align 8 dereferenceable(464) %0) #1 comdat align 2 {
  %2 = alloca ptr, align 8
  store ptr %0, ptr %2, align 8
  %3 = load ptr, ptr %2, align 8
  %4 = getelementptr inbounds %class.InstanceKlass, ptr %3, i32 0, i32 4
  %5 = load ptr, ptr %4, align 8
  ret ptr %5
}

; Function Attrs: mustprogress nounwind uwtable
define linkonce_odr hidden noundef ptr @_ZNK12ConstantPool11pool_holderEv(ptr noundef nonnull align 8 dereferenceable(68) %0) #1 comdat align 2 {
  %2 = alloca ptr, align 8
  store ptr %0, ptr %2, align 8
  %3 = load ptr, ptr %2, align 8
  %4 = getelementptr inbounds %class.ConstantPool, ptr %3, i32 0, i32 3
  %5 = load ptr, ptr %4, align 8
  ret ptr %5
}

; Function Attrs: mustprogress nounwind uwtable
define linkonce_odr hidden noundef i32 @_ZNK5ArrayItE6lengthEv(ptr noundef nonnull align 4 dereferenceable(6) %0) #1 comdat align 2 {
  %2 = alloca ptr, align 8
  store ptr %0, ptr %2, align 8
  %3 = load ptr, ptr %2, align 8
  %4 = getelementptr inbounds %class.Array.3, ptr %3, i32 0, i32 0
  %5 = load i32, ptr %4, align 4
  ret i32 %5
}

; Function Attrs: mustprogress nounwind uwtable
define linkonce_odr hidden noundef ptr @_ZNK12ConstantPool8operandsEv(ptr noundef nonnull align 8 dereferenceable(68) %0) #1 comdat align 2 {
  %2 = alloca ptr, align 8
  store ptr %0, ptr %2, align 8
  %3 = load ptr, ptr %2, align 8
  %4 = getelementptr inbounds %class.ConstantPool, ptr %3, i32 0, i32 4
  %5 = load ptr, ptr %4, align 8
  ret ptr %5
}

; Function Attrs: mustprogress nounwind uwtable
define linkonce_odr hidden noundef zeroext i1 @_ZNK12ConstantPool17has_preresolutionEv(ptr noundef nonnull align 8 dereferenceable(68) %0) #1 comdat align 2 {
  %2 = alloca ptr, align 8
  store ptr %0, ptr %2, align 8
  %3 = load ptr, ptr %2, align 8
  %4 = getelementptr inbounds %class.ConstantPool, ptr %3, i32 0, i32 10
  %5 = load i16, ptr %4, align 8
  %6 = zext i16 %5 to i32
  %7 = and i32 %6, 1
  %8 = icmp ne i32 %7, 0
  ret i1 %8
}

; Function Attrs: mustprogress nounwind uwtable
define linkonce_odr hidden noundef i32 @_ZNK12ConstantPool6lengthEv(ptr noundef nonnull align 8 dereferenceable(68) %0) #1 comdat align 2 {
  %2 = alloca ptr, align 8
  store ptr %0, ptr %2, align 8
  %3 = load ptr, ptr %2, align 8
  %4 = getelementptr inbounds %class.ConstantPool, ptr %3, i32 0, i32 12
  %5 = load i32, ptr %4, align 4
  ret i32 %5
}

; Function Attrs: mustprogress nounwind uwtable
define hidden void @_ZNK12ConstantPool14print_value_onEP12outputStream(ptr noundef nonnull align 8 dereferenceable(68) %0, ptr noundef %1) unnamed_addr #1 align 2 {
  %3 = alloca ptr, align 8
  %4 = alloca ptr, align 8
  %5 = alloca i8, align 1
  store ptr %0, ptr %3, align 8
  store ptr %1, ptr %4, align 8
  %6 = load ptr, ptr %3, align 8
  %7 = load ptr, ptr %4, align 8
  %8 = call noundef i32 @_ZNK12ConstantPool6lengthEv(ptr noundef nonnull align 8 dereferenceable(68) %6)
  call void (ptr, ptr, ...) @_ZN12outputStream5printEPKcz(ptr noundef nonnull align 8 dereferenceable(56) %7, ptr noundef @.str.62, i32 noundef %8)
  %9 = call noundef zeroext i1 @_ZNK12ConstantPool17has_preresolutionEv(ptr noundef nonnull align 8 dereferenceable(68) %6)
  br i1 %9, label %10, label %12

10:                                               ; preds = %2
  %11 = load ptr, ptr %4, align 8
  call void (ptr, ptr, ...) @_ZN12outputStream5printEPKcz(ptr noundef nonnull align 8 dereferenceable(56) %11, ptr noundef @.str.63)
  br label %12

12:                                               ; preds = %10, %2
  %13 = call noundef ptr @_ZNK12ConstantPool8operandsEv(ptr noundef nonnull align 8 dereferenceable(68) %6)
  %14 = icmp ne ptr %13, null
  br i1 %14, label %15, label %19

15:                                               ; preds = %12
  %16 = load ptr, ptr %4, align 8
  %17 = call noundef ptr @_ZNK12ConstantPool8operandsEv(ptr noundef nonnull align 8 dereferenceable(68) %6)
  %18 = call noundef i32 @_ZNK5ArrayItE6lengthEv(ptr noundef nonnull align 4 dereferenceable(6) %17)
  call void (ptr, ptr, ...) @_ZN12outputStream5printEPKcz(ptr noundef nonnull align 8 dereferenceable(56) %16, ptr noundef @.str.64, i32 noundef %18)
  br label %19

19:                                               ; preds = %15, %12
  %20 = load ptr, ptr %4, align 8
  call void @_ZNK12MetaspaceObj16print_address_onEP12outputStream(ptr noundef nonnull align 1 dereferenceable(1) %6, ptr noundef %20)
  %21 = call noundef ptr @_ZNK12ConstantPool11pool_holderEv(ptr noundef nonnull align 8 dereferenceable(68) %6)
  %22 = icmp ne ptr %21, null
  br i1 %22, label %23, label %39

23:                                               ; preds = %19
  %24 = load ptr, ptr %4, align 8
  call void (ptr, ptr, ...) @_ZN12outputStream5printEPKcz(ptr noundef nonnull align 8 dereferenceable(56) %24, ptr noundef @.str.65)
  %25 = call noundef ptr @_ZNK12ConstantPool11pool_holderEv(ptr noundef nonnull align 8 dereferenceable(68) %6)
  %26 = load ptr, ptr %4, align 8
  %27 = load ptr, ptr %25, align 8
  %28 = getelementptr inbounds ptr, ptr %27, i64 11
  %29 = load ptr, ptr %28, align 8
  call void %29(ptr noundef nonnull align 8 dereferenceable(464) %25, ptr noundef %26)
  %30 = call noundef ptr @_ZNK12ConstantPool11pool_holderEv(ptr noundef nonnull align 8 dereferenceable(68) %6)
  %31 = call noundef ptr @_ZNK13InstanceKlass9constantsEv(ptr noundef nonnull align 8 dereferenceable(464) %30)
  %32 = icmp ne ptr %31, %6
  %33 = zext i1 %32 to i8
  store i8 %33, ptr %5, align 1
  %34 = load i8, ptr %5, align 1
  %35 = trunc i8 %34 to i1
  br i1 %35, label %36, label %38

36:                                               ; preds = %23
  %37 = load ptr, ptr %4, align 8
  call void (ptr, ptr, ...) @_ZN12outputStream5printEPKcz(ptr noundef nonnull align 8 dereferenceable(56) %37, ptr noundef @.str.66)
  br label %38

38:                                               ; preds = %36, %23
  br label %39

39:                                               ; preds = %38, %19
  %40 = call noundef ptr @_ZNK12ConstantPool5cacheEv(ptr noundef nonnull align 8 dereferenceable(68) %6)
  %41 = icmp ne ptr %40, null
  br i1 %41, label %42, label %46

42:                                               ; preds = %39
  %43 = load ptr, ptr %4, align 8
  %44 = call noundef ptr @_ZNK12ConstantPool5cacheEv(ptr noundef nonnull align 8 dereferenceable(68) %6)
  %45 = call noundef i64 @_Z3p2iPVKv(ptr noundef %44)
  call void (ptr, ptr, ...) @_ZN12outputStream5printEPKcz(ptr noundef nonnull align 8 dereferenceable(56) %43, ptr noundef @.str.67, i64 noundef %45)
  br label %46

46:                                               ; preds = %42, %39
  ret void
}