; Function Attrs: mustprogress nounwind uwtable
define hidden void @_ZNK12ConstantPool14print_value_onEP12outputStream(ptr noundef nonnull align 8 dereferenceable(68) %0, ptr noundef nonnull %1) unnamed_addr #0 align 2 {
  %3 = getelementptr inbounds i8, ptr %0, i64 60
  %4 = load i32, ptr %3, align 4
  tail call void (ptr, ptr, ...) @_ZN12outputStream5printEPKcz(ptr noundef nonnull align 8 dereferenceable(56) %1, ptr noundef nonnull @.str.62, i32 noundef %4) #17
  %5 = getelementptr inbounds i8, ptr %0, i64 56
  %6 = load i16, ptr %5, align 8
  %7 = and i16 %6, 1
  %.not12 = icmp eq i16 %7, 0
  br i1 %.not12, label %9, label %8

8:                                                ; preds = %2
  tail call void (ptr, ptr, ...) @_ZN12outputStream5printEPKcz(ptr noundef nonnull align 8 dereferenceable(56) %1, ptr noundef nonnull @.str.63) #17
  br label %9

9:                                                ; preds = %8, %2
  %10 = getelementptr inbounds i8, ptr %0, i64 32
  %11 = load ptr, ptr %10, align 8
  %.not = icmp eq ptr %11, null
  br i1 %.not, label %14, label %12

12:                                               ; preds = %9
  %13 = load i32, ptr %11, align 4
  tail call void (ptr, ptr, ...) @_ZN12outputStream5printEPKcz(ptr noundef nonnull align 8 dereferenceable(56) %1, ptr noundef nonnull @.str.64, i32 noundef %13) #17
  br label %14

14:                                               ; preds = %12, %9
  tail call void @_ZNK12MetaspaceObj16print_address_onEP12outputStream(ptr noundef nonnull align 1 dereferenceable(1) %0, ptr noundef nonnull %1) #17
  %15 = getelementptr inbounds i8, ptr %0, i64 24
  %16 = load ptr, ptr %15, align 8
  %.not9 = icmp eq ptr %16, null
  br i1 %.not9, label %26, label %17

17:                                               ; preds = %14
  tail call void (ptr, ptr, ...) @_ZN12outputStream5printEPKcz(ptr noundef nonnull align 8 dereferenceable(56) %1, ptr noundef nonnull @.str.65) #17
  %18 = load ptr, ptr %15, align 8
  %19 = load ptr, ptr %18, align 8
  %20 = getelementptr inbounds i8, ptr %19, i64 88
  %21 = load ptr, ptr %20, align 8
  tail call void %21(ptr noundef nonnull align 8 dereferenceable(464) %18, ptr noundef nonnull %1) #17
  %22 = load ptr, ptr %15, align 8
  %23 = getelementptr inbounds i8, ptr %22, i64 224
  %24 = load ptr, ptr %23, align 8
  %.not10 = icmp eq ptr %24, %0
  br i1 %.not10, label %26, label %25

25:                                               ; preds = %17
  tail call void (ptr, ptr, ...) @_ZN12outputStream5printEPKcz(ptr noundef nonnull align 8 dereferenceable(56) %1, ptr noundef nonnull @.str.66) #17
  br label %26

26:                                               ; preds = %17, %25, %14
  %27 = getelementptr inbounds i8, ptr %0, i64 16
  %28 = load ptr, ptr %27, align 8
  %.not11 = icmp eq ptr %28, null
  br i1 %.not11, label %31, label %29

29:                                               ; preds = %26
  %30 = ptrtoint ptr %28 to i64
  tail call void (ptr, ptr, ...) @_ZN12outputStream5printEPKcz(ptr noundef nonnull align 8 dereferenceable(56) %1, ptr noundef nonnull @.str.67, i64 noundef %30) #17
  br label %31

31:                                               ; preds = %29, %26
  ret void
}